target datalayout = "e-m:e-p270:32:32-p271:32:32-p272:64:64-i64:64-i128:128-f80:128-n8:16:32:64-S128"
target triple = "x86_64-pc-linux-gnu"

%struct.udp_arg = type { i64, ptr }
%struct.rb_addrinfo = type { ptr, i32 }
%struct.addrinfo = type { i32, i32, i32, i32, i32, ptr, ptr, ptr }

; Function Attrs: nounwind sspstrong uwtable
define internal i64 @udp_connect_internal(i64 noundef %0) #0 {
  %2 = alloca i64, align 8
  %3 = alloca i64, align 8
  %4 = alloca ptr, align 8
  %5 = alloca ptr, align 8
  %6 = alloca i32, align 4
  store i64 %0, ptr %3, align 8, !tbaa !6
  call void @llvm.lifetime.start.p0(i64 8, ptr %4) #10
  %7 = load i64, ptr %3, align 8, !tbaa !6
  %8 = inttoptr i64 %7 to ptr
  store ptr %8, ptr %4, align 8, !tbaa !51
  call void @llvm.lifetime.start.p0(i64 8, ptr %5) #10
  %9 = load ptr, ptr %4, align 8, !tbaa !51
  %10 = getelementptr inbounds nuw %struct.udp_arg, ptr %9, i32 0, i32 1
  %11 = load ptr, ptr %10, align 8, !tbaa !18
  %12 = getelementptr inbounds nuw %struct.rb_addrinfo, ptr %11, i32 0, i32 0
  %13 = load ptr, ptr %12, align 8, !tbaa !53
  store ptr %13, ptr %5, align 8, !tbaa !56
  br label %14

14:                                               ; preds = %31, %1
  %15 = load ptr, ptr %5, align 8, !tbaa !56
  %16 = icmp ne ptr %15, null
  br i1 %16, label %17, label %35

17:                                               ; preds = %14
  %18 = load ptr, ptr %4, align 8, !tbaa !51
  %19 = getelementptr inbounds nuw %struct.udp_arg, ptr %18, i32 0, i32 0
  %20 = load i64, ptr %19, align 8, !tbaa !15
  %21 = load ptr, ptr %5, align 8, !tbaa !56
  %22 = getelementptr inbounds nuw %struct.addrinfo, ptr %21, i32 0, i32 5
  %23 = load ptr, ptr %22, align 8, !tbaa !57
  %24 = load ptr, ptr %5, align 8, !tbaa !56
  %25 = getelementptr inbounds nuw %struct.addrinfo, ptr %24, i32 0, i32 4
  %26 = load i32, ptr %25, align 8, !tbaa !59
  %27 = call i32 @rsock_connect(i64 noundef %20, ptr noundef %23, i32 noundef %26, i32 noundef 0, i64 noundef 4)
  %28 = icmp sge i32 %27, 0
  br i1 %28, label %29, label %30

29:                                               ; preds = %17
  store i64 20, ptr %2, align 8
  store i32 1, ptr %6, align 4
  br label %36

30:                                               ; preds = %17
  br label %31

31:                                               ; preds = %30
  %32 = load ptr, ptr %5, align 8, !tbaa !56
  %33 = getelementptr inbounds nuw %struct.addrinfo, ptr %32, i32 0, i32 7
  %34 = load ptr, ptr %33, align 8, !tbaa !60
  store ptr %34, ptr %5, align 8, !tbaa !56
  br label %14, !llvm.loop !61

35:                                               ; preds = %14
  store i64 0, ptr %2, align 8
  store i32 1, ptr %6, align 4
  br label %36

36:                                               ; preds = %35, %29
  call void @llvm.lifetime.end.p0(i64 8, ptr %5) #10
  call void @llvm.lifetime.end.p0(i64 8, ptr %4) #10
  %37 = load i64, ptr %2, align 8
  ret i64 %37
}