; Function Attrs: nounwind sspstrong uwtable
define internal range(i64 0, 21) i64 @udp_connect_internal(i64 noundef %0) #0 {
  %2 = inttoptr i64 %0 to ptr
  %3 = getelementptr inbounds nuw i8, ptr %2, i64 8
  %4 = load ptr, ptr %3, align 8, !tbaa !16
  %.08 = load ptr, ptr %4, align 8, !tbaa !40
  %.not9 = icmp eq ptr %.08, null
  br i1 %.not9, label %._crit_edge, label %.lr.ph

5:                                                ; preds = %.lr.ph
  %6 = getelementptr inbounds nuw i8, ptr %.010, i64 40
  %.0 = load ptr, ptr %6, align 8, !tbaa !40
  %.not = icmp eq ptr %.0, null
  br i1 %.not, label %._crit_edge, label %.lr.ph, !llvm.loop !42

.lr.ph:                                           ; preds = %1, %5
  %.010 = phi ptr [ %.0, %5 ], [ %.08, %1 ]
  %7 = load i64, ptr %2, align 8, !tbaa !12
  %8 = getelementptr inbounds nuw i8, ptr %.010, i64 24
  %9 = load ptr, ptr %8, align 8, !tbaa !43
  %10 = getelementptr inbounds nuw i8, ptr %.010, i64 16
  %11 = load i32, ptr %10, align 8, !tbaa !45
  %12 = tail call i32 @rsock_connect(i64 noundef %7, ptr noundef %9, i32 noundef %11, i32 noundef 0, i64 noundef 4) #5
  %13 = icmp sgt i32 %12, -1
  br i1 %13, label %._crit_edge, label %5

._crit_edge:                                      ; preds = %.lr.ph, %5, %1
  %.07 = phi i64 [ 0, %1 ], [ 0, %5 ], [ 20, %.lr.ph ]
  ret i64 %.07
}